target datalayout = "e-m:e-p270:32:32-p271:32:32-p272:64:64-i64:64-i128:128-f80:128-n8:16:32:64-S128"
target triple = "x86_64-pc-linux-gnu"

%struct.RSA_PKEY_CTX = type { i32, ptr, i32, [2 x i32], i32, ptr, ptr, i32, i32, ptr, ptr, i64, i32 }
%struct.evp_pkey_ctx_st = type { i32, ptr, ptr, ptr, ptr, %union.anon, %struct.anon.4, ptr, ptr, ptr, i32, i32, ptr, ptr, ptr, ptr, ptr, i8, ptr }
%union.anon = type { %struct.anon.0 }
%struct.anon.0 = type { ptr, ptr }
%struct.anon.4 = type { ptr, ptr, i64, i8 }

@.str = private unnamed_addr constant [34 x i8] c"../openssl/crypto/rsa/rsa_pmeth.c\00", align 1
@__func__.pkey_rsa_sign = private unnamed_addr constant [14 x i8] c"pkey_rsa_sign\00", align 1

; Function Attrs: nounwind uwtable
define internal i32 @pkey_rsa_sign(ptr noundef %0, ptr noundef %1, ptr noundef %2, ptr noundef %3, i64 noundef %4) #0 {
  %6 = alloca i32, align 4
  %7 = alloca ptr, align 8
  %8 = alloca ptr, align 8
  %9 = alloca ptr, align 8
  %10 = alloca ptr, align 8
  %11 = alloca i64, align 8
  %12 = alloca i32, align 4
  %13 = alloca ptr, align 8
  %14 = alloca ptr, align 8
  %15 = alloca i32, align 4
  %16 = alloca i32, align 4
  %17 = alloca i32, align 4
  %18 = alloca i32, align 4
  store ptr %0, ptr %7, align 8, !tbaa !3
  store ptr %1, ptr %8, align 8, !tbaa !48
  store ptr %2, ptr %9, align 8, !tbaa !49
  store ptr %3, ptr %10, align 8, !tbaa !48
  store i64 %4, ptr %11, align 8, !tbaa !51
  call void @llvm.lifetime.start.p0(i64 4, ptr %12) #8
  call void @llvm.lifetime.start.p0(i64 8, ptr %13) #8
  %19 = load ptr, ptr %7, align 8, !tbaa !3
  %20 = getelementptr inbounds nuw %struct.evp_pkey_ctx_st, ptr %19, i32 0, i32 16
  %21 = load ptr, ptr %20, align 8, !tbaa !32
  store ptr %21, ptr %13, align 8, !tbaa !8
  call void @llvm.lifetime.start.p0(i64 8, ptr %14) #8
  %22 = load ptr, ptr %7, align 8, !tbaa !3
  %23 = getelementptr inbounds nuw %struct.evp_pkey_ctx_st, ptr %22, i32 0, i32 14
  %24 = load ptr, ptr %23, align 8, !tbaa !52
  %25 = call ptr @EVP_PKEY_get0_RSA(ptr noundef %24)
  store ptr %25, ptr %14, align 8, !tbaa !42
  call void @llvm.lifetime.start.p0(i64 4, ptr %15) #8
  %26 = load ptr, ptr %13, align 8, !tbaa !8
  %27 = getelementptr inbounds nuw %struct.RSA_PKEY_CTX, ptr %26, i32 0, i32 5
  %28 = load ptr, ptr %27, align 8, !tbaa !36
  %29 = icmp ne ptr %28, null
  br i1 %29, label %30, label %185

30:                                               ; preds = %5
  %31 = load ptr, ptr %13, align 8, !tbaa !8
  %32 = getelementptr inbounds nuw %struct.RSA_PKEY_CTX, ptr %31, i32 0, i32 5
  %33 = load ptr, ptr %32, align 8, !tbaa !36
  %34 = call i32 @EVP_MD_get_size(ptr noundef %33)
  store i32 %34, ptr %15, align 4, !tbaa !47
  %35 = load i32, ptr %15, align 4, !tbaa !47
  %36 = icmp sle i32 %35, 0
  br i1 %36, label %37, label %38

37:                                               ; preds = %30
  call void @ERR_new()
  call void @ERR_set_debug(ptr noundef @.str, i32 noundef 152, ptr noundef @__func__.pkey_rsa_sign)
  call void (i32, i32, ptr, ...) @ERR_set_error(i32 noundef 4, i32 noundef 143, ptr noundef null)
  store i32 -1, ptr %6, align 4
  store i32 1, ptr %16, align 4
  br label %204

38:                                               ; preds = %30
  %39 = load i64, ptr %11, align 8, !tbaa !51
  %40 = load i32, ptr %15, align 4, !tbaa !47
  %41 = sext i32 %40 to i64
  %42 = icmp ne i64 %39, %41
  br i1 %42, label %43, label %44

43:                                               ; preds = %38
  call void @ERR_new()
  call void @ERR_set_debug(ptr noundef @.str, i32 noundef 157, ptr noundef @__func__.pkey_rsa_sign)
  call void (i32, i32, ptr, ...) @ERR_set_error(i32 noundef 4, i32 noundef 143, ptr noundef null)
  store i32 -1, ptr %6, align 4
  store i32 1, ptr %16, align 4
  br label %204

44:                                               ; preds = %38
  %45 = load ptr, ptr %13, align 8, !tbaa !8
  %46 = getelementptr inbounds nuw %struct.RSA_PKEY_CTX, ptr %45, i32 0, i32 5
  %47 = load ptr, ptr %46, align 8, !tbaa !36
  %48 = call i32 @EVP_MD_get_type(ptr noundef %47)
  %49 = icmp eq i32 %48, 95
  br i1 %49, label %50, label %72

50:                                               ; preds = %44
  call void @llvm.lifetime.start.p0(i64 4, ptr %17) #8
  %51 = load ptr, ptr %13, align 8, !tbaa !8
  %52 = getelementptr inbounds nuw %struct.RSA_PKEY_CTX, ptr %51, i32 0, i32 4
  %53 = load i32, ptr %52, align 4, !tbaa !28
  %54 = icmp ne i32 %53, 1
  br i1 %54, label %55, label %56

55:                                               ; preds = %50
  store i32 -1, ptr %6, align 4
  store i32 1, ptr %16, align 4
  br label %69

56:                                               ; preds = %50
  %57 = load ptr, ptr %10, align 8, !tbaa !48
  %58 = load i64, ptr %11, align 8, !tbaa !51
  %59 = trunc i64 %58 to i32
  %60 = load ptr, ptr %8, align 8, !tbaa !48
  %61 = load ptr, ptr %14, align 8, !tbaa !42
  %62 = call i32 @RSA_sign_ASN1_OCTET_STRING(i32 noundef 0, ptr noundef %57, i32 noundef %59, ptr noundef %60, ptr noundef %17, ptr noundef %61)
  store i32 %62, ptr %12, align 4, !tbaa !47
  %63 = load i32, ptr %12, align 4, !tbaa !47
  %64 = icmp sle i32 %63, 0
  br i1 %64, label %65, label %67

65:                                               ; preds = %56
  %66 = load i32, ptr %12, align 4, !tbaa !47
  store i32 %66, ptr %6, align 4
  store i32 1, ptr %16, align 4
  br label %69

67:                                               ; preds = %56
  %68 = load i32, ptr %17, align 4, !tbaa !47
  store i32 %68, ptr %12, align 4, !tbaa !47
  store i32 0, ptr %16, align 4
  br label %69

69:                                               ; preds = %67, %65, %55
  call void @llvm.lifetime.end.p0(i64 4, ptr %17) #8
  %70 = load i32, ptr %16, align 4
  switch i32 %70, label %204 [
    i32 0, label %71
  ]

71:                                               ; preds = %69
  br label %184

72:                                               ; preds = %44
  %73 = load ptr, ptr %13, align 8, !tbaa !8
  %74 = getelementptr inbounds nuw %struct.RSA_PKEY_CTX, ptr %73, i32 0, i32 4
  %75 = load i32, ptr %74, align 4, !tbaa !28
  %76 = icmp eq i32 %75, 5
  br i1 %76, label %77, label %117

77:                                               ; preds = %72
  %78 = load ptr, ptr %14, align 8, !tbaa !42
  %79 = call i32 @RSA_size(ptr noundef %78)
  %80 = sext i32 %79 to i64
  %81 = load i64, ptr %11, align 8, !tbaa !51
  %82 = add i64 %81, 1
  %83 = icmp ult i64 %80, %82
  br i1 %83, label %84, label %85

84:                                               ; preds = %77
  call void @ERR_new()
  call void @ERR_set_debug(ptr noundef @.str, i32 noundef 172, ptr noundef @__func__.pkey_rsa_sign)
  call void (i32, i32, ptr, ...) @ERR_set_error(i32 noundef 4, i32 noundef 120, ptr noundef null)
  store i32 -1, ptr %6, align 4
  store i32 1, ptr %16, align 4
  br label %204

85:                                               ; preds = %77
  %86 = load ptr, ptr %13, align 8, !tbaa !8
  %87 = load ptr, ptr %7, align 8, !tbaa !3
  %88 = call i32 @setup_tbuf(ptr noundef %86, ptr noundef %87)
  %89 = icmp ne i32 %88, 0
  br i1 %89, label %91, label %90

90:                                               ; preds = %85
  call void @ERR_new()
  call void @ERR_set_debug(ptr noundef @.str, i32 noundef 176, ptr noundef @__func__.pkey_rsa_sign)
  call void (i32, i32, ptr, ...) @ERR_set_error(i32 noundef 4, i32 noundef 524292, ptr noundef null)
  store i32 -1, ptr %6, align 4
  store i32 1, ptr %16, align 4
  br label %204

91:                                               ; preds = %85
  %92 = load ptr, ptr %13, align 8, !tbaa !8
  %93 = getelementptr inbounds nuw %struct.RSA_PKEY_CTX, ptr %92, i32 0, i32 9
  %94 = load ptr, ptr %93, align 8, !tbaa !40
  %95 = load ptr, ptr %10, align 8, !tbaa !48
  %96 = load i64, ptr %11, align 8, !tbaa !51
  call void @llvm.memcpy.p0.p0.i64(ptr align 1 %94, ptr align 1 %95, i64 %96, i1 false)
  %97 = load ptr, ptr %13, align 8, !tbaa !8
  %98 = getelementptr inbounds nuw %struct.RSA_PKEY_CTX, ptr %97, i32 0, i32 5
  %99 = load ptr, ptr %98, align 8, !tbaa !36
  %100 = call i32 @EVP_MD_get_type(ptr noundef %99)
  %101 = call i32 @RSA_X931_hash_id(i32 noundef %100)
  %102 = trunc i32 %101 to i8
  %103 = load ptr, ptr %13, align 8, !tbaa !8
  %104 = getelementptr inbounds nuw %struct.RSA_PKEY_CTX, ptr %103, i32 0, i32 9
  %105 = load ptr, ptr %104, align 8, !tbaa !40
  %106 = load i64, ptr %11, align 8, !tbaa !51
  %107 = getelementptr inbounds nuw i8, ptr %105, i64 %106
  store i8 %102, ptr %107, align 1, !tbaa !53
  %108 = load i64, ptr %11, align 8, !tbaa !51
  %109 = add i64 %108, 1
  %110 = trunc i64 %109 to i32
  %111 = load ptr, ptr %13, align 8, !tbaa !8
  %112 = getelementptr inbounds nuw %struct.RSA_PKEY_CTX, ptr %111, i32 0, i32 9
  %113 = load ptr, ptr %112, align 8, !tbaa !40
  %114 = load ptr, ptr %8, align 8, !tbaa !48
  %115 = load ptr, ptr %14, align 8, !tbaa !42
  %116 = call i32 @RSA_private_encrypt(i32 noundef %110, ptr noundef %113, ptr noundef %114, ptr noundef %115, i32 noundef 5)
  store i32 %116, ptr %12, align 4, !tbaa !47
  br label %183

117:                                              ; preds = %72
  %118 = load ptr, ptr %13, align 8, !tbaa !8
  %119 = getelementptr inbounds nuw %struct.RSA_PKEY_CTX, ptr %118, i32 0, i32 4
  %120 = load i32, ptr %119, align 4, !tbaa !28
  %121 = icmp eq i32 %120, 1
  br i1 %121, label %122, label %142

122:                                              ; preds = %117
  call void @llvm.lifetime.start.p0(i64 4, ptr %18) #8
  %123 = load ptr, ptr %13, align 8, !tbaa !8
  %124 = getelementptr inbounds nuw %struct.RSA_PKEY_CTX, ptr %123, i32 0, i32 5
  %125 = load ptr, ptr %124, align 8, !tbaa !36
  %126 = call i32 @EVP_MD_get_type(ptr noundef %125)
  %127 = load ptr, ptr %10, align 8, !tbaa !48
  %128 = load i64, ptr %11, align 8, !tbaa !51
  %129 = trunc i64 %128 to i32
  %130 = load ptr, ptr %8, align 8, !tbaa !48
  %131 = load ptr, ptr %14, align 8, !tbaa !42
  %132 = call i32 @RSA_sign(i32 noundef %126, ptr noundef %127, i32 noundef %129, ptr noundef %130, ptr noundef %18, ptr noundef %131)
  store i32 %132, ptr %12, align 4, !tbaa !47
  %133 = load i32, ptr %12, align 4, !tbaa !47
  %134 = icmp sle i32 %133, 0
  br i1 %134, label %135, label %137

135:                                              ; preds = %122
  %136 = load i32, ptr %12, align 4, !tbaa !47
  store i32 %136, ptr %6, align 4
  store i32 1, ptr %16, align 4
  br label %139

137:                                              ; preds = %122
  %138 = load i32, ptr %18, align 4, !tbaa !47
  store i32 %138, ptr %12, align 4, !tbaa !47
  store i32 0, ptr %16, align 4
  br label %139

139:                                              ; preds = %137, %135
  call void @llvm.lifetime.end.p0(i64 4, ptr %18) #8
  %140 = load i32, ptr %16, align 4
  switch i32 %140, label %204 [
    i32 0, label %141
  ]

141:                                              ; preds = %139
  br label %182

142:                                              ; preds = %117
  %143 = load ptr, ptr %13, align 8, !tbaa !8
  %144 = getelementptr inbounds nuw %struct.RSA_PKEY_CTX, ptr %143, i32 0, i32 4
  %145 = load i32, ptr %144, align 4, !tbaa !28
  %146 = icmp eq i32 %145, 6
  br i1 %146, label %147, label %180

147:                                              ; preds = %142
  %148 = load ptr, ptr %13, align 8, !tbaa !8
  %149 = load ptr, ptr %7, align 8, !tbaa !3
  %150 = call i32 @setup_tbuf(ptr noundef %148, ptr noundef %149)
  %151 = icmp ne i32 %150, 0
  br i1 %151, label %153, label %152

152:                                              ; preds = %147
  store i32 -1, ptr %6, align 4
  store i32 1, ptr %16, align 4
  br label %204

153:                                              ; preds = %147
  %154 = load ptr, ptr %14, align 8, !tbaa !42
  %155 = load ptr, ptr %13, align 8, !tbaa !8
  %156 = getelementptr inbounds nuw %struct.RSA_PKEY_CTX, ptr %155, i32 0, i32 9
  %157 = load ptr, ptr %156, align 8, !tbaa !40
  %158 = load ptr, ptr %10, align 8, !tbaa !48
  %159 = load ptr, ptr %13, align 8, !tbaa !8
  %160 = getelementptr inbounds nuw %struct.RSA_PKEY_CTX, ptr %159, i32 0, i32 5
  %161 = load ptr, ptr %160, align 8, !tbaa !36
  %162 = load ptr, ptr %13, align 8, !tbaa !8
  %163 = getelementptr inbounds nuw %struct.RSA_PKEY_CTX, ptr %162, i32 0, i32 6
  %164 = load ptr, ptr %163, align 8, !tbaa !37
  %165 = load ptr, ptr %13, align 8, !tbaa !8
  %166 = getelementptr inbounds nuw %struct.RSA_PKEY_CTX, ptr %165, i32 0, i32 7
  %167 = load i32, ptr %166, align 8, !tbaa !29
  %168 = call i32 @RSA_padding_add_PKCS1_PSS_mgf1(ptr noundef %154, ptr noundef %157, ptr noundef %158, ptr noundef %161, ptr noundef %164, i32 noundef %167)
  %169 = icmp ne i32 %168, 0
  br i1 %169, label %171, label %170

170:                                              ; preds = %153
  store i32 -1, ptr %6, align 4
  store i32 1, ptr %16, align 4
  br label %204

171:                                              ; preds = %153
  %172 = load ptr, ptr %14, align 8, !tbaa !42
  %173 = call i32 @RSA_size(ptr noundef %172)
  %174 = load ptr, ptr %13, align 8, !tbaa !8
  %175 = getelementptr inbounds nuw %struct.RSA_PKEY_CTX, ptr %174, i32 0, i32 9
  %176 = load ptr, ptr %175, align 8, !tbaa !40
  %177 = load ptr, ptr %8, align 8, !tbaa !48
  %178 = load ptr, ptr %14, align 8, !tbaa !42
  %179 = call i32 @RSA_private_encrypt(i32 noundef %173, ptr noundef %176, ptr noundef %177, ptr noundef %178, i32 noundef 3)
  store i32 %179, ptr %12, align 4, !tbaa !47
  br label %181

180:                                              ; preds = %142
  store i32 -1, ptr %6, align 4
  store i32 1, ptr %16, align 4
  br label %204

181:                                              ; preds = %171
  br label %182

182:                                              ; preds = %181, %141
  br label %183

183:                                              ; preds = %182, %91
  br label %184

184:                                              ; preds = %183, %71
  br label %195

185:                                              ; preds = %5
  %186 = load i64, ptr %11, align 8, !tbaa !51
  %187 = trunc i64 %186 to i32
  %188 = load ptr, ptr %10, align 8, !tbaa !48
  %189 = load ptr, ptr %8, align 8, !tbaa !48
  %190 = load ptr, ptr %14, align 8, !tbaa !42
  %191 = load ptr, ptr %13, align 8, !tbaa !8
  %192 = getelementptr inbounds nuw %struct.RSA_PKEY_CTX, ptr %191, i32 0, i32 4
  %193 = load i32, ptr %192, align 4, !tbaa !28
  %194 = call i32 @RSA_private_encrypt(i32 noundef %187, ptr noundef %188, ptr noundef %189, ptr noundef %190, i32 noundef %193)
  store i32 %194, ptr %12, align 4, !tbaa !47
  br label %195

195:                                              ; preds = %185, %184
  %196 = load i32, ptr %12, align 4, !tbaa !47
  %197 = icmp slt i32 %196, 0
  br i1 %197, label %198, label %200

198:                                              ; preds = %195
  %199 = load i32, ptr %12, align 4, !tbaa !47
  store i32 %199, ptr %6, align 4
  store i32 1, ptr %16, align 4
  br label %204

200:                                              ; preds = %195
  %201 = load i32, ptr %12, align 4, !tbaa !47
  %202 = sext i32 %201 to i64
  %203 = load ptr, ptr %9, align 8, !tbaa !49
  store i64 %202, ptr %203, align 8, !tbaa !51
  store i32 1, ptr %6, align 4
  store i32 1, ptr %16, align 4
  br label %204

204:                                              ; preds = %200, %198, %180, %170, %152, %139, %90, %84, %69, %43, %37
  call void @llvm.lifetime.end.p0(i64 4, ptr %15) #8
  call void @llvm.lifetime.end.p0(i64 8, ptr %14) #8
  call void @llvm.lifetime.end.p0(i64 8, ptr %13) #8
  call void @llvm.lifetime.end.p0(i64 4, ptr %12) #8
  %205 = load i32, ptr %6, align 4
  ret i32 %205
}