; Function Attrs: nounwind uwtable
define internal range(i32 -2147483648, 2) i32 @pkey_rsa_sign(ptr noundef readonly captures(none) %0, ptr noundef %1, ptr noundef writeonly captures(none) %2, ptr noundef %3, i64 noundef %4) #1 {
  %6 = alloca i32, align 4
  %7 = alloca i32, align 4
  %8 = getelementptr inbounds nuw i8, ptr %0, i64 152
  %9 = load ptr, ptr %8, align 8, !tbaa !29
  %10 = getelementptr inbounds nuw i8, ptr %0, i64 136
  %11 = load ptr, ptr %10, align 8, !tbaa !51
  %12 = tail call ptr @EVP_PKEY_get0_RSA(ptr noundef %11) #9
  %13 = getelementptr inbounds nuw i8, ptr %9, i64 32
  %14 = load ptr, ptr %13, align 8, !tbaa !33
  %.not = icmp eq ptr %14, null
  br i1 %.not, label %84, label %15

15:                                               ; preds = %5
  %16 = tail call i32 @EVP_MD_get_size(ptr noundef nonnull %14) #9
  %17 = icmp slt i32 %16, 1
  br i1 %17, label %18, label %19

18:                                               ; preds = %15
  tail call void @ERR_new() #9
  tail call void @ERR_set_debug(ptr noundef nonnull @.str, i32 noundef 152, ptr noundef nonnull @__func__.pkey_rsa_sign) #9
  tail call void (i32, i32, ptr, ...) @ERR_set_error(i32 noundef 4, i32 noundef 143, ptr noundef null) #9
  br label %93

19:                                               ; preds = %15
  %20 = zext nneg i32 %16 to i64
  %.not75 = icmp eq i64 %4, %20
  br i1 %.not75, label %22, label %21

21:                                               ; preds = %19
  tail call void @ERR_new() #9
  tail call void @ERR_set_debug(ptr noundef nonnull @.str, i32 noundef 157, ptr noundef nonnull @__func__.pkey_rsa_sign) #9
  tail call void (i32, i32, ptr, ...) @ERR_set_error(i32 noundef 4, i32 noundef 143, ptr noundef null) #9
  br label %93

22:                                               ; preds = %19
  %23 = load ptr, ptr %13, align 8, !tbaa !33
  %24 = tail call i32 @EVP_MD_get_type(ptr noundef %23) #9
  %25 = icmp eq i32 %24, 95
  br i1 %25, label %26, label %35

26:                                               ; preds = %22
  call void @llvm.lifetime.start.p0(i64 4, ptr nonnull %6) #9
  %27 = getelementptr inbounds nuw i8, ptr %9, i64 28
  %28 = load i32, ptr %27, align 4, !tbaa !25
  %.not80 = icmp eq i32 %28, 1
  br i1 %.not80, label %29, label %.thread

29:                                               ; preds = %26
  %30 = trunc nuw nsw i64 %4 to i32
  %31 = call i32 @RSA_sign_ASN1_OCTET_STRING(i32 noundef 0, ptr noundef %3, i32 noundef %30, ptr noundef %1, ptr noundef nonnull %6, ptr noundef %12) #9
  %32 = icmp slt i32 %31, 1
  br i1 %32, label %.thread, label %33

.thread:                                          ; preds = %26, %29
  %.164.ph = phi i32 [ %31, %29 ], [ -1, %26 ]
  call void @llvm.lifetime.end.p0(i64 4, ptr nonnull %6) #9
  br label %93

33:                                               ; preds = %29
  %34 = load i32, ptr %6, align 4, !tbaa !52
  call void @llvm.lifetime.end.p0(i64 4, ptr nonnull %6) #9
  br label %89

35:                                               ; preds = %22
  %36 = getelementptr inbounds nuw i8, ptr %9, i64 28
  %37 = load i32, ptr %36, align 4, !tbaa !25
  switch i32 %37, label %93 [
    i32 5, label %38
    i32 1, label %58
    i32 6, label %65
  ]

38:                                               ; preds = %35
  %39 = tail call i32 @RSA_size(ptr noundef %12) #9
  %40 = sext i32 %39 to i64
  %.not78 = icmp ult i64 %4, %40
  br i1 %.not78, label %42, label %41

41:                                               ; preds = %38
  tail call void @ERR_new() #9
  tail call void @ERR_set_debug(ptr noundef nonnull @.str, i32 noundef 172, ptr noundef nonnull @__func__.pkey_rsa_sign) #9
  tail call void (i32, i32, ptr, ...) @ERR_set_error(i32 noundef 4, i32 noundef 120, ptr noundef null) #9
  br label %93

42:                                               ; preds = %38
  %43 = tail call fastcc i32 @setup_tbuf(ptr noundef nonnull %9, ptr noundef nonnull %0)
  %.not79 = icmp eq i32 %43, 0
  br i1 %.not79, label %44, label %45

44:                                               ; preds = %42
  tail call void @ERR_new() #9
  tail call void @ERR_set_debug(ptr noundef nonnull @.str, i32 noundef 176, ptr noundef nonnull @__func__.pkey_rsa_sign) #9
  tail call void (i32, i32, ptr, ...) @ERR_set_error(i32 noundef 4, i32 noundef 524292, ptr noundef null) #9
  br label %93

45:                                               ; preds = %42
  %46 = getelementptr inbounds nuw i8, ptr %9, i64 56
  %47 = load ptr, ptr %46, align 8, !tbaa !37
  tail call void @llvm.memcpy.p0.p0.i64(ptr align 1 %47, ptr align 1 %3, i64 %4, i1 false)
  %48 = load ptr, ptr %13, align 8, !tbaa !33
  %49 = tail call i32 @EVP_MD_get_type(ptr noundef %48) #9
  %50 = tail call i32 @RSA_X931_hash_id(i32 noundef %49) #9
  %51 = trunc i32 %50 to i8
  %52 = load ptr, ptr %46, align 8, !tbaa !37
  %53 = getelementptr inbounds nuw i8, ptr %52, i64 %4
  store i8 %51, ptr %53, align 1, !tbaa !53
  %54 = trunc i64 %4 to i32
  %55 = add nuw i32 %54, 1
  %56 = load ptr, ptr %46, align 8, !tbaa !37
  %57 = tail call i32 @RSA_private_encrypt(i32 noundef %55, ptr noundef %56, ptr noundef %1, ptr noundef %12, i32 noundef 5) #9
  br label %89

58:                                               ; preds = %35
  call void @llvm.lifetime.start.p0(i64 4, ptr nonnull %7) #9
  %59 = load ptr, ptr %13, align 8, !tbaa !33
  %60 = tail call i32 @EVP_MD_get_type(ptr noundef %59) #9
  %61 = trunc nuw nsw i64 %4 to i32
  %62 = call i32 @RSA_sign(i32 noundef %60, ptr noundef %3, i32 noundef %61, ptr noundef %1, ptr noundef nonnull %7, ptr noundef %12) #9
  %63 = icmp sgt i32 %62, 0
  %64 = load i32, ptr %7, align 4
  call void @llvm.lifetime.end.p0(i64 4, ptr nonnull %7) #9
  br i1 %63, label %89, label %93

65:                                               ; preds = %35
  %66 = getelementptr inbounds nuw i8, ptr %9, i64 56
  %67 = load ptr, ptr %66, align 8, !tbaa !37
  %.not.i = icmp eq ptr %67, null
  br i1 %.not.i, label %setup_tbuf.exit, label %setup_tbuf.exit.thread

setup_tbuf.exit:                                  ; preds = %65
  %68 = load ptr, ptr %10, align 8, !tbaa !51
  %69 = tail call ptr @EVP_PKEY_get0_RSA(ptr noundef %68) #9
  %70 = tail call i32 @RSA_size(ptr noundef %69) #9
  %71 = sext i32 %70 to i64
  %72 = tail call noalias ptr @CRYPTO_malloc(i64 noundef %71, ptr noundef nonnull @.str, i32 noundef 119) #9
  store ptr %72, ptr %66, align 8, !tbaa !37
  %.not86 = icmp eq ptr %72, null
  br i1 %.not86, label %93, label %setup_tbuf.exit.thread

setup_tbuf.exit.thread:                           ; preds = %65, %setup_tbuf.exit
  %73 = phi ptr [ %67, %65 ], [ %72, %setup_tbuf.exit ]
  %74 = load ptr, ptr %13, align 8, !tbaa !33
  %75 = getelementptr inbounds nuw i8, ptr %9, i64 40
  %76 = load ptr, ptr %75, align 8, !tbaa !34
  %77 = getelementptr inbounds nuw i8, ptr %9, i64 48
  %78 = load i32, ptr %77, align 8, !tbaa !26
  %79 = tail call i32 @RSA_padding_add_PKCS1_PSS_mgf1(ptr noundef %12, ptr noundef nonnull %73, ptr noundef %3, ptr noundef %74, ptr noundef %76, i32 noundef %78) #9
  %.not77 = icmp eq i32 %79, 0
  br i1 %.not77, label %93, label %80

80:                                               ; preds = %setup_tbuf.exit.thread
  %81 = tail call i32 @RSA_size(ptr noundef %12) #9
  %82 = load ptr, ptr %66, align 8, !tbaa !37
  %83 = tail call i32 @RSA_private_encrypt(i32 noundef %81, ptr noundef %82, ptr noundef %1, ptr noundef %12, i32 noundef 3) #9
  br label %89

84:                                               ; preds = %5
  %85 = trunc i64 %4 to i32
  %86 = getelementptr inbounds nuw i8, ptr %9, i64 28
  %87 = load i32, ptr %86, align 4, !tbaa !25
  %88 = tail call i32 @RSA_private_encrypt(i32 noundef %85, ptr noundef %3, ptr noundef %1, ptr noundef %12, i32 noundef %87) #9
  br label %89

89:                                               ; preds = %33, %80, %58, %45, %84
  %.267 = phi i32 [ %34, %33 ], [ %57, %45 ], [ %64, %58 ], [ %83, %80 ], [ %88, %84 ]
  %90 = icmp slt i32 %.267, 0
  br i1 %90, label %93, label %91

91:                                               ; preds = %89
  %92 = zext nneg i32 %.267 to i64
  store i64 %92, ptr %2, align 8, !tbaa !54
  br label %93

93:                                               ; preds = %.thread, %89, %35, %setup_tbuf.exit.thread, %setup_tbuf.exit, %58, %91, %44, %41, %21, %18
  %.063 = phi i32 [ -1, %18 ], [ -1, %21 ], [ 1, %91 ], [ -1, %41 ], [ -1, %44 ], [ %62, %58 ], [ -1, %setup_tbuf.exit ], [ -1, %setup_tbuf.exit.thread ], [ -1, %35 ], [ %.267, %89 ], [ %.164.ph, %.thread ]
  ret i32 %.063
}